target datalayout = "e-m:e-p270:32:32-p271:32:32-p272:64:64-i64:64-i128:128-f80:128-n8:16:32:64-S128"
target triple = "x86_64-pc-linux-gnu"

%struct.stb_vorbis = type { i32, i32, i32, i32, i32, ptr, i32, ptr, ptr, i32, i32, ptr, ptr, ptr, i32, i8, i32, %struct.ProbedPage, %struct.ProbedPage, %struct.stb_vorbis_alloc, i32, i32, i32, i32, [2 x i32], i32, i32, i32, ptr, i32, [64 x i16], ptr, i32, [64 x i16], ptr, i32, ptr, i32, [64 x %struct.Mode], i32, [16 x ptr], [16 x ptr], [16 x ptr], i32, [16 x ptr], i32, i32, [2 x ptr], [2 x ptr], [2 x ptr], [2 x ptr], [2 x ptr], i32, i32, i32, [255 x i8], i8, i8, i8, i32, i32, i32, i32, i32, i32, i32, i32, i32, i32, i32, [4 x %struct.CRCscan], i32, i32 }
%struct.ProbedPage = type { i32, i32, i32 }
%struct.stb_vorbis_alloc = type { ptr, i32 }
%struct.Mode = type { i8, i8, i16, i16 }
%struct.CRCscan = type { i32, i32, i32, i32, i32 }

; Function Attrs: nounwind uwtable
define void @vorbis_init(ptr noundef %0, ptr noundef %1) #0 {
  %3 = alloca ptr, align 8
  %4 = alloca ptr, align 8
  store ptr %0, ptr %3, align 8, !tbaa !3
  store ptr %1, ptr %4, align 8, !tbaa !18
  %5 = load ptr, ptr %3, align 8, !tbaa !3
  call void @llvm.memset.p0.i64(ptr align 8 %5, i8 0, i64 1904, i1 false)
  %6 = load ptr, ptr %4, align 8, !tbaa !18
  %7 = icmp ne ptr %6, null
  br i1 %7, label %8, label %23

8:                                                ; preds = %2
  %9 = load ptr, ptr %3, align 8, !tbaa !3
  %10 = getelementptr inbounds nuw %struct.stb_vorbis, ptr %9, i32 0, i32 19
  %11 = load ptr, ptr %4, align 8, !tbaa !18
  call void @llvm.memcpy.p0.p0.i64(ptr align 8 %10, ptr align 8 %11, i64 16, i1 false), !tbaa.struct !278
  %12 = load ptr, ptr %3, align 8, !tbaa !3
  %13 = getelementptr inbounds nuw %struct.stb_vorbis, ptr %12, i32 0, i32 19
  %14 = getelementptr inbounds nuw %struct.stb_vorbis_alloc, ptr %13, i32 0, i32 1
  %15 = load i32, ptr %14, align 8, !tbaa !279
  %16 = and i32 %15, -8
  store i32 %16, ptr %14, align 8, !tbaa !279
  %17 = load ptr, ptr %3, align 8, !tbaa !3
  %18 = getelementptr inbounds nuw %struct.stb_vorbis, ptr %17, i32 0, i32 19
  %19 = getelementptr inbounds nuw %struct.stb_vorbis_alloc, ptr %18, i32 0, i32 1
  %20 = load i32, ptr %19, align 8, !tbaa !279
  %21 = load ptr, ptr %3, align 8, !tbaa !3
  %22 = getelementptr inbounds nuw %struct.stb_vorbis, ptr %21, i32 0, i32 21
  store i32 %20, ptr %22, align 4, !tbaa !25
  br label %23

23:                                               ; preds = %8, %2
  %24 = load ptr, ptr %3, align 8, !tbaa !3
  %25 = getelementptr inbounds nuw %struct.stb_vorbis, ptr %24, i32 0, i32 22
  store i32 0, ptr %25, align 8, !tbaa !17
  %26 = load ptr, ptr %3, align 8, !tbaa !3
  %27 = getelementptr inbounds nuw %struct.stb_vorbis, ptr %26, i32 0, i32 23
  store i32 0, ptr %27, align 4, !tbaa !10
  %28 = load ptr, ptr %3, align 8, !tbaa !3
  %29 = getelementptr inbounds nuw %struct.stb_vorbis, ptr %28, i32 0, i32 11
  store ptr null, ptr %29, align 8, !tbaa !68
  %30 = load ptr, ptr %3, align 8, !tbaa !3
  %31 = getelementptr inbounds nuw %struct.stb_vorbis, ptr %30, i32 0, i32 28
  store ptr null, ptr %31, align 8, !tbaa !118
  %32 = load ptr, ptr %3, align 8, !tbaa !3
  %33 = getelementptr inbounds nuw %struct.stb_vorbis, ptr %32, i32 0, i32 69
  store i32 -1, ptr %33, align 8, !tbaa !280
  %34 = load ptr, ptr %3, align 8, !tbaa !3
  %35 = getelementptr inbounds nuw %struct.stb_vorbis, ptr %34, i32 0, i32 10
  store i32 0, ptr %35, align 4, !tbaa !277
  %36 = load ptr, ptr %3, align 8, !tbaa !3
  %37 = getelementptr inbounds nuw %struct.stb_vorbis, ptr %36, i32 0, i32 8
  store ptr null, ptr %37, align 8, !tbaa !70
  ret void
}