; Function Attrs: mustprogress nofree norecurse nosync nounwind willreturn memory(argmem: readwrite) uwtable
define void @vorbis_init(ptr noundef captures(none) initializes((0, 1904)) %0, ptr noundef readonly captures(address_is_null) %1) local_unnamed_addr #30 {
  tail call void @llvm.memset.p0.i64(ptr noundef nonnull align 8 dereferenceable(1904) %0, i8 0, i64 1904, i1 false)
  %.not = icmp eq ptr %1, null
  br i1 %.not, label %9, label %3

3:                                                ; preds = %2
  %4 = getelementptr inbounds nuw i8, ptr %0, i64 128
  tail call void @llvm.memcpy.p0.p0.i64(ptr noundef nonnull align 8 dereferenceable(16) %4, ptr noundef nonnull align 8 dereferenceable(16) %1, i64 16, i1 false), !tbaa.struct !267
  %5 = getelementptr inbounds nuw i8, ptr %0, i64 136
  %6 = load i32, ptr %5, align 8, !tbaa !268
  %7 = and i32 %6, -8
  store i32 %7, ptr %5, align 8, !tbaa !268
  %8 = getelementptr inbounds nuw i8, ptr %0, i64 148
  store i32 %7, ptr %8, align 4, !tbaa !19
  br label %9

9:                                                ; preds = %3, %2
  %10 = getelementptr inbounds nuw i8, ptr %0, i64 152
  store i32 0, ptr %10, align 8, !tbaa !61
  %11 = getelementptr inbounds nuw i8, ptr %0, i64 156
  store i32 0, ptr %11, align 4, !tbaa !200
  %12 = getelementptr inbounds nuw i8, ptr %0, i64 64
  store ptr null, ptr %12, align 8, !tbaa !59
  %13 = getelementptr inbounds nuw i8, ptr %0, i64 184
  store ptr null, ptr %13, align 8, !tbaa !106
  %14 = getelementptr inbounds nuw i8, ptr %0, i64 1808
  store i32 -1, ptr %14, align 8, !tbaa !269
  %15 = getelementptr inbounds nuw i8, ptr %0, i64 60
  store i32 0, ptr %15, align 4, !tbaa !266
  %16 = getelementptr inbounds nuw i8, ptr %0, i64 48
  store ptr null, ptr %16, align 8, !tbaa !62
  ret void
}